
hello:     file format elf64-littleriscv
hello
architecture: riscv:rv64, flags 0x00000150:
HAS_SYMS, DYNAMIC, D_PAGED
start address 0x0000000000000370

Program Header:
    PHDR off    0x0000000000000040 vaddr 0x0000000000000040 paddr 0x0000000000000040 align 2**3
         filesz 0x0000000000000188 memsz 0x0000000000000188 flags r--
  INTERP off    0x00000000000001c8 vaddr 0x00000000000001c8 paddr 0x00000000000001c8 align 2**0
         filesz 0x000000000000001a memsz 0x000000000000001a flags r--
    LOAD off    0x0000000000000000 vaddr 0x0000000000000000 paddr 0x0000000000000000 align 2**12
         filesz 0x0000000000000394 memsz 0x0000000000000394 flags r-x
    LOAD off    0x0000000000000ea0 vaddr 0x0000000000001ea0 paddr 0x0000000000001ea0 align 2**12
         filesz 0x0000000000000188 memsz 0x0000000000000188 flags rw-
 DYNAMIC off    0x0000000000000ea0 vaddr 0x0000000000001ea0 paddr 0x0000000000001ea0 align 2**3
         filesz 0x0000000000000160 memsz 0x0000000000000160 flags rw-
   STACK off    0x0000000000000000 vaddr 0x0000000000000000 paddr 0x0000000000000000 align 2**4
         filesz 0x0000000000000000 memsz 0x0000000000000000 flags rw-
   RELRO off    0x0000000000000ea0 vaddr 0x0000000000001ea0 paddr 0x0000000000001ea0 align 2**0
         filesz 0x0000000000000160 memsz 0x0000000000000160 flags r--

Dynamic Section:
  NEEDED               libmocklibc.so
  HASH                 0x00000000000001e8
  GNU_HASH             0x0000000000000218
  STRTAB               0x00000000000002d0
  SYMTAB               0x0000000000000240
  STRSZ                0x0000000000000029
  SYMENT               0x0000000000000018
  DEBUG                0x0000000000000000
  PLTGOT               0x0000000000002000
  PLTRELSZ             0x0000000000000030
  PLTREL               0x0000000000000007
  JMPREL               0x0000000000000300
  RELA                 0x0000000000000300
  RELASZ               0x0000000000000030
  RELAENT              0x0000000000000018
  FLAGS_1              0x0000000008000000

Sections:
Idx Name          Size      VMA               LMA               File off  Algn
  0 .interp       0000001a  00000000000001c8  00000000000001c8  000001c8  2**0
                  CONTENTS, ALLOC, LOAD, READONLY, DATA
  1 .hash         0000002c  00000000000001e8  00000000000001e8  000001e8  2**3
                  CONTENTS, ALLOC, LOAD, READONLY, DATA
  2 .gnu.hash     00000024  0000000000000218  0000000000000218  00000218  2**3
                  CONTENTS, ALLOC, LOAD, READONLY, DATA
  3 .dynsym       00000090  0000000000000240  0000000000000240  00000240  2**3
                  CONTENTS, ALLOC, LOAD, READONLY, DATA
  4 .dynstr       00000029  00000000000002d0  00000000000002d0  000002d0  2**0
                  CONTENTS, ALLOC, LOAD, READONLY, DATA
  5 .rela.plt     00000030  0000000000000300  0000000000000300  00000300  2**3
                  CONTENTS, ALLOC, LOAD, READONLY, DATA
  6 .plt          00000040  0000000000000330  0000000000000330  00000330  2**4
                  CONTENTS, ALLOC, LOAD, READONLY, CODE
  7 .text         00000024  0000000000000370  0000000000000370  00000370  2**1
                  CONTENTS, ALLOC, LOAD, READONLY, CODE
  8 .dynamic      00000160  0000000000001ea0  0000000000001ea0  00000ea0  2**3
                  CONTENTS, ALLOC, LOAD, DATA
  9 .got          00000028  0000000000002000  0000000000002000  00001000  2**3
                  CONTENTS, ALLOC, LOAD, DATA
 10 .comment      0000001b  0000000000000000  0000000000000000  00001028  2**0
                  CONTENTS, READONLY
SYMBOL TABLE:
00000000000001c8 l    d  .interp	0000000000000000 .interp
00000000000001e8 l    d  .hash	0000000000000000 .hash
0000000000000218 l    d  .gnu.hash	0000000000000000 .gnu.hash
0000000000000240 l    d  .dynsym	0000000000000000 .dynsym
00000000000002d0 l    d  .dynstr	0000000000000000 .dynstr
0000000000000300 l    d  .rela.plt	0000000000000000 .rela.plt
0000000000000330 l    d  .plt	0000000000000000 .plt
0000000000000370 l    d  .text	0000000000000000 .text
0000000000001ea0 l    d  .dynamic	0000000000000000 .dynamic
0000000000002000 l    d  .got	0000000000000000 .got
0000000000000000 l    d  .comment	0000000000000000 .comment
0000000000000000 l    df *ABS*	0000000000000000 hello.c
0000000000001ea0 l     O *ABS*	0000000000000000 _DYNAMIC
0000000000000330 l     O *ABS*	0000000000000000 _PROCEDURE_LINKAGE_TABLE_
0000000000002020 l     O *ABS*	0000000000000000 _GLOBAL_OFFSET_TABLE_
0000000000000000       F *UND*	0000000000000000 putchar
0000000000002800 g       *ABS*	0000000000000000 __global_pointer$
0000000000002028 g       .got	0000000000000000 __SDATA_BEGIN__
0000000000000000       F *UND*	0000000000000000 _start
0000000000002028 g       .got	0000000000000000 __BSS_END__
0000000000002028 g       .got	0000000000000000 __bss_start
0000000000000370 g     F .text	0000000000000024 main
0000000000002000 g       .got	0000000000000000 __DATA_BEGIN__
0000000000002028 g       .got	0000000000000000 _edata
0000000000002028 g       .got	0000000000000000 _end
0000000000000000       F *UND*	0000000000000000 exit



Disassembly of section .plt:

0000000000000330 <.plt>:
 330:	00002397          	auipc	t2,0x2
 334:	41c30333          	sub	t1,t1,t3
 338:	cd03be03          	ld	t3,-816(t2) # 2000 <__DATA_BEGIN__>
 33c:	fd430313          	addi	t1,t1,-44
 340:	cd038293          	addi	t0,t2,-816
 344:	00135313          	srli	t1,t1,0x1
 348:	0082b283          	ld	t0,8(t0)
 34c:	000e0067          	jr	t3

0000000000000350 <putchar@plt>:
 350:	00002e17          	auipc	t3,0x2
 354:	cc0e3e03          	ld	t3,-832(t3) # 2010 <putchar>
 358:	000e0367          	jalr	t1,t3
 35c:	00000013          	nop

0000000000000360 <exit@plt>:
 360:	00002e17          	auipc	t3,0x2
 364:	cb8e3e03          	ld	t3,-840(t3) # 2018 <exit>
 368:	000e0367          	jalr	t1,t3
 36c:	00000013          	nop

Disassembly of section .text:

0000000000000370 <main>:
 370:	1141                	addi	sp,sp,-16
 372:	e406                	sd	ra,8(sp)
 374:	e022                	sd	s0,0(sp)
 376:	0800                	addi	s0,sp,16
 378:	04800513          	li	a0,72
 37c:	fd5ff0ef          	jal	ra,350 <putchar@plt>
 380:	4529                	li	a0,10
 382:	fcfff0ef          	jal	ra,350 <putchar@plt>
 386:	fdbff0ef          	jal	ra,360 <exit@plt>
 38a:	0001                	nop
 38c:	60a2                	ld	ra,8(sp)
 38e:	6402                	ld	s0,0(sp)
 390:	0141                	addi	sp,sp,16
 392:	8082                	ret
